target datalayout = "e-m:e-p270:32:32-p271:32:32-p272:64:64-i64:64-i128:128-f80:128-n8:16:32:64-S128"
target triple = "x86_64-pc-linux-gnu"

@mJSON = internal global i64 0, align 8
@i_unpack = internal global i64 0, align 8
@i_create_id = internal global i64 0, align 8
@.str.106 = private unnamed_addr constant [3 x i8] c"C*\00", align 1
@.str.107 = private unnamed_addr constant [4 x i8] c"raw\00", align 1

; Function Attrs: inlinehint nounwind sspstrong uwtable
define internal i64 @rbimpl_strlen(ptr noundef nonnull %0) #4 {
  %2 = alloca ptr, align 8
  store ptr %0, ptr %2, align 8, !tbaa !56
  %3 = load ptr, ptr %2, align 8, !tbaa !56
  %4 = call i64 @strlen(ptr noundef %3) #32
  ret i64 %4
}

; Function Attrs: inlinehint nounwind sspstrong uwtable
define internal i64 @rbimpl_str_new_cstr(ptr noundef nonnull %0) #4 {
  %2 = alloca ptr, align 8
  %3 = alloca i64, align 8
  store ptr %0, ptr %2, align 8, !tbaa !56
  call void @llvm.lifetime.start.p0(i64 8, ptr %3) #27
  %4 = load ptr, ptr %2, align 8, !tbaa !56
  %5 = call i64 @rbimpl_strlen(ptr noundef %4)
  store i64 %5, ptr %3, align 8, !tbaa !6
  %6 = load ptr, ptr %2, align 8, !tbaa !56
  %7 = load i64, ptr %3, align 8, !tbaa !6
  %8 = call i64 @rb_str_new_static(ptr noundef %6, i64 noundef %7)
  call void @llvm.lifetime.end.p0(i64 8, ptr %3) #27
  ret i64 %8
}

; Function Attrs: nounwind sspstrong uwtable
define internal i64 @mString_to_json_raw_object(i64 noundef %0) #0 {
  %2 = alloca i64, align 8
  %3 = alloca i64, align 8
  %4 = alloca i64, align 8
  store i64 %0, ptr %2, align 8, !tbaa !6
  call void @llvm.lifetime.start.p0(i64 8, ptr %3) #27
  call void @llvm.lifetime.start.p0(i64 8, ptr %4) #27
  %5 = call i64 @rb_hash_new()
  store i64 %5, ptr %4, align 8, !tbaa !6
  %6 = load i64, ptr %4, align 8, !tbaa !6
  %7 = load i64, ptr @mJSON, align 8, !tbaa !6
  %8 = load i64, ptr @i_create_id, align 8, !tbaa !6
  %9 = call i64 (i64, i64, i32, ...) @rb_funcall(i64 noundef %7, i64 noundef %8, i32 noundef 0)
  %10 = load i64, ptr %2, align 8, !tbaa !6
  %11 = call i64 @rb_obj_class(i64 noundef %10)
  %12 = call i64 @rb_class_name(i64 noundef %11)
  %13 = call i64 @rb_hash_aset(i64 noundef %6, i64 noundef %9, i64 noundef %12)
  %14 = load i64, ptr %2, align 8, !tbaa !6
  %15 = load i64, ptr @i_unpack, align 8, !tbaa !6
  %16 = call i64 @rbimpl_str_new_cstr(ptr noundef @.str.106)
  %17 = call i64 (i64, i64, i32, ...) @rb_funcall(i64 noundef %14, i64 noundef %15, i32 noundef 1, i64 noundef %16)
  store i64 %17, ptr %3, align 8, !tbaa !6
  %18 = load i64, ptr %4, align 8, !tbaa !6
  %19 = call i64 @rb_utf8_str_new_static(ptr noundef @.str.107, i64 noundef 3)
  %20 = load i64, ptr %3, align 8, !tbaa !6
  %21 = call i64 @rb_hash_aset(i64 noundef %18, i64 noundef %19, i64 noundef %20)
  %22 = load i64, ptr %4, align 8, !tbaa !6
  call void @llvm.lifetime.end.p0(i64 8, ptr %4) #27
  call void @llvm.lifetime.end.p0(i64 8, ptr %3) #27
  ret i64 %22
}