; Function Attrs: nounwind sspstrong uwtable
define internal i64 @mString_to_json_raw_object(i64 noundef %0) #0 {
  %2 = tail call i64 @rb_hash_new() #22
  %3 = load i64, ptr @mJSON, align 8, !tbaa !6
  %4 = load i64, ptr @i_create_id, align 8, !tbaa !6
  %5 = tail call i64 (i64, i64, i32, ...) @rb_funcall(i64 noundef %3, i64 noundef %4, i32 noundef 0) #22
  %6 = tail call i64 @rb_obj_class(i64 noundef %0) #22
  %7 = tail call i64 @rb_class_name(i64 noundef %6) #22
  %8 = tail call i64 @rb_hash_aset(i64 noundef %2, i64 noundef %5, i64 noundef %7) #22
  %9 = load i64, ptr @i_unpack, align 8, !tbaa !6
  %10 = tail call i64 @rb_str_new_static(ptr noundef nonnull @.str.106, i64 noundef 2) #22
  %11 = tail call i64 (i64, i64, i32, ...) @rb_funcall(i64 noundef %0, i64 noundef %9, i32 noundef 1, i64 noundef %10) #22
  %12 = tail call i64 @rb_utf8_str_new_static(ptr noundef nonnull @.str.107, i64 noundef 3) #22
  %13 = tail call i64 @rb_hash_aset(i64 noundef %2, i64 noundef %12, i64 noundef %11) #22
  ret i64 %2
}